; Function Attrs: mustprogress uwtable
define hidden void @hb_paint_funcs_set_push_transform_func(ptr nocapture noundef %0, ptr noundef %1, ptr noundef %2, ptr noundef %3) local_unnamed_addr #0 {
  %.not = icmp eq ptr %1, null
  %5 = getelementptr inbounds i8, ptr %0, i64 4
  %6 = load atomic i32, ptr %5 monotonic, align 4
  %.not.i.i.not = icmp eq i32 %6, 0
  br i1 %.not.i.i.not, label %7, label %9

7:                                                ; preds = %4
  %.not12.i = icmp eq ptr %3, null
  br i1 %.not12.i, label %_ZL28_hb_paint_funcs_set_preambleP16hb_paint_funcs_tbPPvPPFvS1_E.exit, label %8

8:                                                ; preds = %7
  tail call void %3(ptr noundef %2)
  br label %_ZL28_hb_paint_funcs_set_preambleP16hb_paint_funcs_tbPPvPPFvS1_E.exit

9:                                                ; preds = %4
  br i1 %.not, label %10, label %12

10:                                               ; preds = %9
  %.not.i = icmp eq ptr %3, null
  br i1 %.not.i, label %12, label %11

11:                                               ; preds = %10
  tail call void %3(ptr noundef %2)
  br label %12

12:                                               ; preds = %10, %11, %9
  %.034.ph = phi ptr [ null, %10 ], [ null, %11 ], [ %2, %9 ]
  %.0.ph = phi ptr [ null, %10 ], [ null, %11 ], [ %3, %9 ]
  %13 = getelementptr inbounds i8, ptr %0, i64 136
  %14 = load ptr, ptr %13, align 8
  %.not21 = icmp eq ptr %14, null
  br i1 %.not21, label %24, label %15

15:                                               ; preds = %12
  %16 = load ptr, ptr %14, align 8
  %.not22 = icmp eq ptr %16, null
  br i1 %.not22, label %24, label %17

17:                                               ; preds = %15
  %18 = getelementptr inbounds i8, ptr %0, i64 128
  %19 = load ptr, ptr %18, align 8
  %.not23 = icmp eq ptr %19, null
  br i1 %.not23, label %22, label %20

20:                                               ; preds = %17
  %21 = load ptr, ptr %19, align 8
  br label %22

22:                                               ; preds = %17, %20
  %23 = phi ptr [ %21, %20 ], [ null, %17 ]
  tail call void %16(ptr noundef %23)
  br label %24

24:                                               ; preds = %22, %15, %12
  %.not.i26 = icmp eq ptr %.034.ph, null
  br i1 %.not.i26, label %30, label %25

25:                                               ; preds = %24
  %26 = getelementptr inbounds i8, ptr %0, i64 128
  %27 = load ptr, ptr %26, align 8
  %.not13.i = icmp eq ptr %27, null
  br i1 %.not13.i, label %28, label %30

28:                                               ; preds = %25
  %29 = tail call noalias dereferenceable_or_null(112) ptr @calloc(i64 noundef 1, i64 noundef 112) #11
  store ptr %29, ptr %26, align 8
  %.not14.i = icmp eq ptr %29, null
  br i1 %.not14.i, label %35, label %30

30:                                               ; preds = %28, %25, %24
  %.not15.i = icmp eq ptr %.0.ph, null
  br i1 %.not15.i, label %36, label %31

31:                                               ; preds = %30
  %32 = load ptr, ptr %13, align 8
  %.not16.i = icmp eq ptr %32, null
  br i1 %.not16.i, label %33, label %36

33:                                               ; preds = %31
  %34 = tail call noalias dereferenceable_or_null(112) ptr @calloc(i64 noundef 1, i64 noundef 112) #11
  store ptr %34, ptr %13, align 8
  %.not17.i = icmp eq ptr %34, null
  br i1 %.not17.i, label %.thread.i, label %36

35:                                               ; preds = %28
  %.not18.i = icmp eq ptr %.0.ph, null
  br i1 %.not18.i, label %_ZL28_hb_paint_funcs_set_preambleP16hb_paint_funcs_tbPPvPPFvS1_E.exit, label %.thread.i

.thread.i:                                        ; preds = %35, %33
  tail call void %.0.ph(ptr noundef %.034.ph)
  br label %_ZL28_hb_paint_funcs_set_preambleP16hb_paint_funcs_tbPPvPPFvS1_E.exit

36:                                               ; preds = %33, %31, %30
  %spec.select = select i1 %.not, ptr @_ZL27hb_paint_push_transform_nilP16hb_paint_funcs_tPvffffffS1_, ptr %1
  %37 = getelementptr inbounds i8, ptr %0, i64 16
  store ptr %spec.select, ptr %37, align 8
  %38 = getelementptr inbounds i8, ptr %0, i64 128
  %39 = load ptr, ptr %38, align 8
  %.not24 = icmp eq ptr %39, null
  br i1 %.not24, label %41, label %40

40:                                               ; preds = %36
  store ptr %.034.ph, ptr %39, align 8
  br label %41

41:                                               ; preds = %40, %36
  %42 = load ptr, ptr %13, align 8
  %.not25 = icmp eq ptr %42, null
  br i1 %.not25, label %_ZL28_hb_paint_funcs_set_preambleP16hb_paint_funcs_tbPPvPPFvS1_E.exit, label %43

43:                                               ; preds = %41
  store ptr %.0.ph, ptr %42, align 8
  br label %_ZL28_hb_paint_funcs_set_preambleP16hb_paint_funcs_tbPPvPPFvS1_E.exit

_ZL28_hb_paint_funcs_set_preambleP16hb_paint_funcs_tbPPvPPFvS1_E.exit: ; preds = %.thread.i, %35, %8, %7, %43, %41
  ret void
}